target datalayout = "e-m:e-p270:32:32-p271:32:32-p272:64:64-i64:64-i128:128-f80:128-n8:16:32:64-S128"
target triple = "x86_64-pc-linux-gnu"

%struct.ParseState = type { ptr, ptr, i32, i32, ptr, ptr, ptr, ptr, ptr, ptr, i8, ptr, ptr, ptr, ptr, ptr, ptr, i8, ptr, i32, i32, ptr, ptr, i8, i8, ptr, i8, i8, i8, i8, i8, ptr, ptr, ptr, ptr, ptr, ptr }
%struct.Node = type { i32 }
%struct.A_Expr = type { i32, i32, ptr, ptr, ptr, i32 }
%struct.Expr = type { i32 }
%union.ListCell = type { ptr }
%struct.List = type { i32, i32, i32, ptr, [0 x %union.ListCell] }
%struct.OpExpr = type { %struct.Expr, i32, i32, i32, i8, i32, i32, ptr, i32 }

@.str.41 = private unnamed_addr constant [13 x i8] c"parse_expr.c\00", align 1
@.str.71 = private unnamed_addr constant [40 x i8] c"%s requires = operator to yield boolean\00", align 1
@.str.73 = private unnamed_addr constant [25 x i8] c"%s must not return a set\00", align 1
@.str.74 = private unnamed_addr constant [7 x i8] c"NULLIF\00", align 1
@__func__.transformAExprNullIf = private unnamed_addr constant [21 x i8] c"transformAExprNullIf\00", align 1

; Function Attrs: inlinehint nounwind uwtable
define internal ptr @list_nth_cell(ptr noundef %0, i32 noundef %1) #4 {
  %3 = alloca ptr, align 8
  %4 = alloca i32, align 4
  store ptr %0, ptr %3, align 8
  store i32 %1, ptr %4, align 4
  %5 = load ptr, ptr %3, align 8
  %6 = getelementptr inbounds nuw %struct.List, ptr %5, i32 0, i32 3
  %7 = load ptr, ptr %6, align 8
  %8 = load i32, ptr %4, align 4
  %9 = sext i32 %8 to i64
  %10 = getelementptr inbounds %union.ListCell, ptr %7, i64 %9
  ret ptr %10
}

; Function Attrs: nounwind uwtable
define internal ptr @transformAExprNullIf(ptr noundef %0, ptr noundef %1) #0 {
  %3 = alloca ptr, align 8
  %4 = alloca ptr, align 8
  %5 = alloca ptr, align 8
  %6 = alloca ptr, align 8
  %7 = alloca ptr, align 8
  store ptr %0, ptr %3, align 8
  store ptr %1, ptr %4, align 8
  call void @llvm.lifetime.start.p0(i64 8, ptr %5) #8
  %8 = load ptr, ptr %3, align 8
  %9 = load ptr, ptr %4, align 8
  %10 = getelementptr inbounds nuw %struct.A_Expr, ptr %9, i32 0, i32 3
  %11 = load ptr, ptr %10, align 8
  %12 = call ptr @transformExprRecurse(ptr noundef %8, ptr noundef %11)
  store ptr %12, ptr %5, align 8
  call void @llvm.lifetime.start.p0(i64 8, ptr %6) #8
  %13 = load ptr, ptr %3, align 8
  %14 = load ptr, ptr %4, align 8
  %15 = getelementptr inbounds nuw %struct.A_Expr, ptr %14, i32 0, i32 4
  %16 = load ptr, ptr %15, align 8
  %17 = call ptr @transformExprRecurse(ptr noundef %13, ptr noundef %16)
  store ptr %17, ptr %6, align 8
  call void @llvm.lifetime.start.p0(i64 8, ptr %7) #8
  %18 = load ptr, ptr %3, align 8
  %19 = load ptr, ptr %4, align 8
  %20 = getelementptr inbounds nuw %struct.A_Expr, ptr %19, i32 0, i32 2
  %21 = load ptr, ptr %20, align 8
  %22 = load ptr, ptr %5, align 8
  %23 = load ptr, ptr %6, align 8
  %24 = load ptr, ptr %3, align 8
  %25 = getelementptr inbounds nuw %struct.ParseState, ptr %24, i32 0, i32 31
  %26 = load ptr, ptr %25, align 8
  %27 = load ptr, ptr %4, align 8
  %28 = getelementptr inbounds nuw %struct.A_Expr, ptr %27, i32 0, i32 5
  %29 = load i32, ptr %28, align 8
  %30 = call ptr @make_op(ptr noundef %18, ptr noundef %21, ptr noundef %22, ptr noundef %23, ptr noundef %26, i32 noundef %29)
  store ptr %30, ptr %7, align 8
  %31 = load ptr, ptr %7, align 8
  %32 = getelementptr inbounds nuw %struct.OpExpr, ptr %31, i32 0, i32 3
  %33 = load i32, ptr %32, align 4
  %34 = icmp ne i32 %33, 16
  br i1 %34, label %35, label %52

35:                                               ; preds = %2
  br label %36

36:                                               ; preds = %35
  br i1 true, label %37, label %39

37:                                               ; preds = %36
  %38 = call zeroext i1 @errstart_cold(i32 noundef 21, ptr noundef null) #9
  br i1 %38, label %41, label %49

39:                                               ; preds = %36
  %40 = call zeroext i1 @errstart(i32 noundef 21, ptr noundef null)
  br i1 %40, label %41, label %49

41:                                               ; preds = %39, %37
  %42 = call i32 @errcode(i32 noundef 67141764)
  %43 = call i32 (ptr, ...) @errmsg(ptr noundef @.str.71, ptr noundef @.str.74)
  %44 = load ptr, ptr %3, align 8
  %45 = load ptr, ptr %4, align 8
  %46 = getelementptr inbounds nuw %struct.A_Expr, ptr %45, i32 0, i32 5
  %47 = load i32, ptr %46, align 8
  %48 = call i32 @parser_errposition(ptr noundef %44, i32 noundef %47)
  call void @errfinish(ptr noundef @.str.41, i32 noundef 1102, ptr noundef @__func__.transformAExprNullIf)
  br label %49

49:                                               ; preds = %41, %39, %37
  unreachable

50:                                               ; No predecessors!
  br label %51

51:                                               ; preds = %50
  br label %52

52:                                               ; preds = %51, %2
  %53 = load ptr, ptr %7, align 8
  %54 = getelementptr inbounds nuw %struct.OpExpr, ptr %53, i32 0, i32 4
  %55 = load i8, ptr %54, align 8, !range !6, !noundef !7
  %56 = trunc i8 %55 to i1
  br i1 %56, label %57, label %74

57:                                               ; preds = %52
  br label %58

58:                                               ; preds = %57
  br i1 true, label %59, label %61

59:                                               ; preds = %58
  %60 = call zeroext i1 @errstart_cold(i32 noundef 21, ptr noundef null) #9
  br i1 %60, label %63, label %71

61:                                               ; preds = %58
  %62 = call zeroext i1 @errstart(i32 noundef 21, ptr noundef null)
  br i1 %62, label %63, label %71

63:                                               ; preds = %61, %59
  %64 = call i32 @errcode(i32 noundef 67141764)
  %65 = call i32 (ptr, ...) @errmsg(ptr noundef @.str.73, ptr noundef @.str.74)
  %66 = load ptr, ptr %3, align 8
  %67 = load ptr, ptr %4, align 8
  %68 = getelementptr inbounds nuw %struct.A_Expr, ptr %67, i32 0, i32 5
  %69 = load i32, ptr %68, align 8
  %70 = call i32 @parser_errposition(ptr noundef %66, i32 noundef %69)
  call void @errfinish(ptr noundef @.str.41, i32 noundef 1108, ptr noundef @__func__.transformAExprNullIf)
  br label %71

71:                                               ; preds = %63, %61, %59
  unreachable

72:                                               ; No predecessors!
  br label %73

73:                                               ; preds = %72
  br label %74

74:                                               ; preds = %73, %52
  %75 = load ptr, ptr %7, align 8
  %76 = getelementptr inbounds nuw %struct.OpExpr, ptr %75, i32 0, i32 7
  %77 = load ptr, ptr %76, align 8
  %78 = call ptr @list_nth_cell(ptr noundef %77, i32 noundef 0)
  %79 = load ptr, ptr %78, align 8
  %80 = call i32 @exprType(ptr noundef %79)
  %81 = load ptr, ptr %7, align 8
  %82 = getelementptr inbounds nuw %struct.OpExpr, ptr %81, i32 0, i32 3
  store i32 %80, ptr %82, align 4
  %83 = load ptr, ptr %7, align 8
  %84 = getelementptr inbounds nuw %struct.Node, ptr %83, i32 0, i32 0
  store i32 19, ptr %84, align 4
  %85 = load ptr, ptr %7, align 8
  call void @llvm.lifetime.end.p0(i64 8, ptr %7) #8
  call void @llvm.lifetime.end.p0(i64 8, ptr %6) #8
  call void @llvm.lifetime.end.p0(i64 8, ptr %5) #8
  ret ptr %85
}