; Function Attrs: nounwind uwtable
define internal fastcc ptr @transformAExprNullIf(ptr noundef %0, ptr noundef nonnull readonly captures(none) %1) unnamed_addr #0 {
  %3 = getelementptr inbounds nuw i8, ptr %1, i64 16
  %4 = load ptr, ptr %3, align 8
  %5 = tail call fastcc ptr @transformExprRecurse(ptr noundef %0, ptr noundef %4)
  %6 = getelementptr inbounds nuw i8, ptr %1, i64 24
  %7 = load ptr, ptr %6, align 8
  %8 = tail call fastcc ptr @transformExprRecurse(ptr noundef %0, ptr noundef %7)
  %9 = getelementptr inbounds nuw i8, ptr %1, i64 8
  %10 = load ptr, ptr %9, align 8
  %11 = getelementptr inbounds nuw i8, ptr %0, i64 192
  %12 = load ptr, ptr %11, align 8
  %13 = getelementptr inbounds nuw i8, ptr %1, i64 32
  %14 = load i32, ptr %13, align 8
  %15 = tail call ptr @make_op(ptr noundef %0, ptr noundef %10, ptr noundef %5, ptr noundef %8, ptr noundef %12, i32 noundef %14) #9
  %16 = getelementptr inbounds nuw i8, ptr %15, i64 12
  %17 = load i32, ptr %16, align 4
  %.not = icmp eq i32 %17, 16
  br i1 %.not, label %24, label %18

18:                                               ; preds = %2
  %19 = tail call zeroext i1 @errstart_cold(i32 noundef 21, ptr noundef null) #10
  tail call void @llvm.assume(i1 %19)
  %20 = tail call i32 @errcode(i32 noundef 67141764) #9
  %21 = tail call i32 (ptr, ...) @errmsg(ptr noundef nonnull @.str.71, ptr noundef nonnull @.str.74) #9
  %22 = load i32, ptr %13, align 8
  %23 = tail call i32 @parser_errposition(ptr noundef nonnull %0, i32 noundef %22) #9
  tail call void @errfinish(ptr noundef nonnull @.str.41, i32 noundef 1102, ptr noundef nonnull @__func__.transformAExprNullIf) #9
  unreachable

24:                                               ; preds = %2
  %25 = getelementptr inbounds nuw i8, ptr %15, i64 16
  %26 = load i8, ptr %25, align 8, !range !4, !noundef !5
  %27 = trunc nuw i8 %26 to i1
  br i1 %27, label %28, label %34

28:                                               ; preds = %24
  %29 = tail call zeroext i1 @errstart_cold(i32 noundef 21, ptr noundef null) #10
  tail call void @llvm.assume(i1 %29)
  %30 = tail call i32 @errcode(i32 noundef 67141764) #9
  %31 = tail call i32 (ptr, ...) @errmsg(ptr noundef nonnull @.str.73, ptr noundef nonnull @.str.74) #9
  %32 = load i32, ptr %13, align 8
  %33 = tail call i32 @parser_errposition(ptr noundef nonnull %0, i32 noundef %32) #9
  tail call void @errfinish(ptr noundef nonnull @.str.41, i32 noundef 1108, ptr noundef nonnull @__func__.transformAExprNullIf) #9
  unreachable

34:                                               ; preds = %24
  %35 = getelementptr inbounds nuw i8, ptr %15, i64 32
  %36 = load ptr, ptr %35, align 8
  %37 = getelementptr i8, ptr %36, i64 16
  %.val = load ptr, ptr %37, align 8
  %38 = load ptr, ptr %.val, align 8
  %39 = tail call i32 @exprType(ptr noundef %38) #9
  store i32 %39, ptr %16, align 4
  store i32 19, ptr %15, align 4
  ret ptr %15
}